; ModuleID = '16/643.c'
source_filename = "16/643.c"
target datalayout = "e-m:e-p270:32:32-p271:32:32-p272:64:64-i64:64-f80:128-n8:16:32:64-S128"
target triple = "x86_64-pc-linux-gnu"

@.str = private unnamed_addr constant [3 x i8] c"%d\00", align 1
@.str.1 = private unnamed_addr constant [4 x i8] c"%d\0A\00", align 1
@.str.2 = private unnamed_addr constant [6 x i8] c"%d%d\0A\00", align 1
@.str.3 = private unnamed_addr constant [8 x i8] c"%d%d%d\0A\00", align 1
@.str.4 = private unnamed_addr constant [10 x i8] c"%d%d%d%d\0A\00", align 1

; Function Attrs: noinline nounwind uwtable
define dso_local i32 @main() #0 {
  %1 = alloca i32, align 4
  %2 = alloca i32, align 4
  %3 = alloca i32, align 4
  %4 = alloca i32, align 4
  %5 = alloca i32, align 4
  %6 = alloca i32, align 4
  store i32 0, i32* %1, align 4
  %7 = call i32 (i8*, ...) @__isoc99_scanf(i8* getelementptr inbounds ([3 x i8], [3 x i8]* @.str, i64 0, i64 0), i32* %2)
  %8 = load i32, i32* %2, align 4
  %9 = srem i32 %8, 10
  store i32 %9, i32* %3, align 4
  %10 = load i32, i32* %2, align 4
  %11 = sdiv i32 %10, 10
  %12 = srem i32 %11, 10
  store i32 %12, i32* %4, align 4
  %13 = load i32, i32* %2, align 4
  %14 = sdiv i32 %13, 100
  %15 = srem i32 %14, 10
  store i32 %15, i32* %5, align 4
  %16 = load i32, i32* %2, align 4
  %17 = sdiv i32 %16, 1000
  %18 = srem i32 %17, 10
  store i32 %18, i32* %6, align 4
  %19 = load i32, i32* %2, align 4
  %20 = icmp sge i32 %19, 0
  br i1 %20, label %21, label %27

21:                                               ; preds = %0
  %22 = load i32, i32* %2, align 4
  %23 = icmp slt i32 %22, 10
  br i1 %23, label %24, label %27

24:                                               ; preds = %21
  %25 = load i32, i32* %2, align 4
  %26 = call i32 (i8*, ...) @printf(i8* getelementptr inbounds ([4 x i8], [4 x i8]* @.str.1, i64 0, i64 0), i32 %25)
  br label %56

27:                                               ; preds = %21, %0
  %28 = load i32, i32* %2, align 4
  %29 = icmp sge i32 %28, 10
  br i1 %29, label %30, label %37

30:                                               ; preds = %27
  %31 = load i32, i32* %2, align 4
  %32 = icmp slt i32 %31, 100
  br i1 %32, label %33, label %37

33:                                               ; preds = %30
  %34 = load i32, i32* %3, align 4
  %35 = load i32, i32* %4, align 4
  %36 = call i32 (i8*, ...) @printf(i8* getelementptr inbounds ([6 x i8], [6 x i8]* @.str.2, i64 0, i64 0), i32 %34, i32 %35)
  br label %55

37:                                               ; preds = %30, %27
  %38 = load i32, i32* %2, align 4
  %39 = icmp sge i32 %38, 100
  br i1 %39, label %40, label %48

40:                                               ; preds = %37
  %41 = load i32, i32* %2, align 4
  %42 = icmp slt i32 %41, 1000
  br i1 %42, label %43, label %48

43:                                               ; preds = %40
  %44 = load i32, i32* %3, align 4
  %45 = load i32, i32* %4, align 4
  %46 = load i32, i32* %5, align 4
  %47 = call i32 (i8*, ...) @printf(i8* getelementptr inbounds ([8 x i8], [8 x i8]* @.str.3, i64 0, i64 0), i32 %44, i32 %45, i32 %46)
  br label %54

48:                                               ; preds = %40, %37
  %49 = load i32, i32* %3, align 4
  %50 = load i32, i32* %4, align 4
  %51 = load i32, i32* %5, align 4
  %52 = load i32, i32* %6, align 4
  %53 = call i32 (i8*, ...) @printf(i8* getelementptr inbounds ([10 x i8], [10 x i8]* @.str.4, i64 0, i64 0), i32 %49, i32 %50, i32 %51, i32 %52)
  br label %54

54:                                               ; preds = %48, %43
  br label %55

55:                                               ; preds = %54, %33
  br label %56

56:                                               ; preds = %55, %24
  ret i32 0
}

declare dso_local i32 @__isoc99_scanf(i8*, ...) #1

declare dso_local i32 @printf(i8*, ...) #1


!llvm.module.flags = !{!0}
!llvm.ident = !{!1}

!0 = !{i32 1, !"wchar_size", i32 4}
!1 = !{!"clang version 10.0.0-4ubuntu1 "}
